target datalayout = "e-m:e-p270:32:32-p271:32:32-p272:64:64-i64:64-i128:128-f80:128-n8:16:32:64-S128"
target triple = "x86_64-pc-linux-gnu"

%struct.preference = type { ptr, ptr, ptr, i32, i32, i32, %union.anon, %union.anon.0, %union.anon.1, %union.anon.2, %struct.pref_custom_cbs, ptr, ptr }
%union.anon = type { ptr }
%union.anon.0 = type { ptr }
%union.anon.1 = type { ptr }
%union.anon.2 = type { %struct.anon }
%struct.anon = type { ptr, i8 }
%struct.pref_custom_cbs = type { ptr, ptr, ptr, ptr, ptr, ptr, ptr }
%struct.enum_val_t = type { ptr, ptr, i32 }
%struct._GString = type { ptr, i64, i64 }

@.str.51 = private unnamed_addr constant [27 x i8] c"An unknown preference type\00", align 1
@.str.52 = private unnamed_addr constant [4 x i8] c"%s.\00", align 1
@.str.53 = private unnamed_addr constant [23 x i8] c"An obsolete preference\00", align 1
@.str.54 = private unnamed_addr constant [17 x i8] c"A decimal number\00", align 1
@.str.55 = private unnamed_addr constant [16 x i8] c"An octal number\00", align 1
@.str.56 = private unnamed_addr constant [21 x i8] c"A hexadecimal number\00", align 1
@.str.57 = private unnamed_addr constant [33 x i8] c"true or false (case-insensitive)\00", align 1
@.str.58 = private unnamed_addr constant [9 x i8] c"One of: \00", align 1
@.str.59 = private unnamed_addr constant [24 x i8] c"\0AEquivalently, one of: \00", align 1
@.str.60 = private unnamed_addr constant [3 x i8] c", \00", align 1
@.str.61 = private unnamed_addr constant [21 x i8] c"\0A(case-insensitive).\00", align 1
@.str.62 = private unnamed_addr constant [9 x i8] c"A string\00", align 1
@.str.63 = private unnamed_addr constant [17 x i8] c"A path to a file\00", align 1
@.str.64 = private unnamed_addr constant [22 x i8] c"A path to a directory\00", align 1
@.str.65 = private unnamed_addr constant [65 x i8] c"A string denoting an positive integer range (e.g., \221-20,30-40\22)\00", align 1
@.str.66 = private unnamed_addr constant [56 x i8] c"A six-digit hexadecimal RGB color triplet (e.g. fce94f)\00", align 1
@.str.67 = private unnamed_addr constant [15 x i8] c"A custom value\00", align 1
@.str.68 = private unnamed_addr constant [58 x i8] c"A string denoting an positive integer range for Decode As\00", align 1
@.str.69 = private unnamed_addr constant [14 x i8] c"[Static text]\00", align 1
@.str.70 = private unnamed_addr constant [42 x i8] c"Configuration data stored in its own file\00", align 1
@.str.71 = private unnamed_addr constant [32 x i8] c"Password (never stored on disk)\00", align 1
@.str.72 = private unnamed_addr constant [17 x i8] c"A dissector name\00", align 1

; Function Attrs: null_pointer_is_valid sspstrong uwtable
define ptr @prefs_pref_type_description(ptr noundef %0) #1 {
  %2 = alloca ptr, align 8
  %3 = alloca ptr, align 8
  %4 = alloca ptr, align 8
  %5 = alloca i32, align 4
  %6 = alloca i32, align 4
  %7 = alloca ptr, align 8
  %8 = alloca ptr, align 8
  %9 = alloca ptr, align 8
  %10 = alloca i8, align 1
  store ptr %0, ptr %3, align 8
  call void @llvm.lifetime.start.p0(i64 8, ptr %4) #17
  store ptr @.str.51, ptr %4, align 8
  call void @llvm.lifetime.start.p0(i64 4, ptr %5) #17
  %11 = load ptr, ptr %3, align 8
  %12 = icmp ne ptr %11, null
  br i1 %12, label %16, label %13

13:                                               ; preds = %1
  %14 = load ptr, ptr %4, align 8
  %15 = call noalias ptr (ptr, ptr, ...) @wmem_strdup_printf(ptr noundef null, ptr noundef @.str.52, ptr noundef %14)
  store ptr %15, ptr %2, align 8
  store i32 1, ptr %6, align 4
  br label %126

16:                                               ; preds = %1
  %17 = load ptr, ptr %3, align 8
  %18 = getelementptr inbounds nuw %struct.preference, ptr %17, i32 0, i32 4
  %19 = load i32, ptr %18, align 4
  store i32 %19, ptr %5, align 4
  %20 = load i32, ptr %5, align 4
  %21 = and i32 %20, 1024
  %22 = icmp ne i32 %21, 0
  br i1 %22, label %23, label %24

23:                                               ; preds = %16
  store ptr @.str.53, ptr %4, align 8
  br label %27

24:                                               ; preds = %16
  %25 = load i32, ptr %5, align 4
  %26 = and i32 %25, -1025
  store i32 %26, ptr %5, align 4
  br label %27

27:                                               ; preds = %24, %23
  %28 = load i32, ptr %5, align 4
  switch i32 %28, label %122 [
    i32 1, label %29
    i32 2, label %37
    i32 4, label %38
    i32 65536, label %38
    i32 8, label %99
    i32 128, label %100
    i32 16384, label %100
    i32 2048, label %101
    i32 16, label %102
    i32 256, label %103
    i32 512, label %104
    i32 8192, label %117
    i32 32, label %118
    i32 64, label %119
    i32 32768, label %120
    i32 131072, label %121
  ]

29:                                               ; preds = %27
  %30 = load ptr, ptr %3, align 8
  %31 = getelementptr inbounds nuw %struct.preference, ptr %30, i32 0, i32 9
  %32 = load i32, ptr %31, align 8
  switch i32 %32, label %36 [
    i32 10, label %33
    i32 8, label %34
    i32 16, label %35
  ]

33:                                               ; preds = %29
  store ptr @.str.54, ptr %4, align 8
  br label %36

34:                                               ; preds = %29
  store ptr @.str.55, ptr %4, align 8
  br label %36

35:                                               ; preds = %29
  store ptr @.str.56, ptr %4, align 8
  br label %36

36:                                               ; preds = %29, %35, %34, %33
  br label %123

37:                                               ; preds = %27
  store ptr @.str.57, ptr %4, align 8
  br label %123

38:                                               ; preds = %27, %27
  call void @llvm.lifetime.start.p0(i64 8, ptr %7) #17
  %39 = load ptr, ptr %3, align 8
  %40 = getelementptr inbounds nuw %struct.preference, ptr %39, i32 0, i32 9
  %41 = getelementptr inbounds nuw %struct.anon, ptr %40, i32 0, i32 0
  %42 = load ptr, ptr %41, align 8
  store ptr %42, ptr %7, align 8
  call void @llvm.lifetime.start.p0(i64 8, ptr %8) #17
  %43 = call ptr @g_string_new(ptr noundef @.str.58)
  store ptr %43, ptr %8, align 8
  call void @llvm.lifetime.start.p0(i64 8, ptr %9) #17
  %44 = call ptr @g_string_new(ptr noundef @.str.59)
  store ptr %44, ptr %9, align 8
  call void @llvm.lifetime.start.p0(i64 1, ptr %10) #17
  store i8 0, ptr %10, align 1
  br label %45

45:                                               ; preds = %82, %38
  %46 = load ptr, ptr %7, align 8
  %47 = getelementptr inbounds nuw %struct.enum_val_t, ptr %46, i32 0, i32 0
  %48 = load ptr, ptr %47, align 8
  %49 = icmp ne ptr %48, null
  br i1 %49, label %50, label %83

50:                                               ; preds = %45
  %51 = load ptr, ptr %8, align 8
  %52 = load ptr, ptr %7, align 8
  %53 = getelementptr inbounds nuw %struct.enum_val_t, ptr %52, i32 0, i32 0
  %54 = load ptr, ptr %53, align 8
  %55 = call ptr @g_string_append(ptr noundef %51, ptr noundef %54)
  %56 = load ptr, ptr %9, align 8
  %57 = load ptr, ptr %7, align 8
  %58 = getelementptr inbounds nuw %struct.enum_val_t, ptr %57, i32 0, i32 1
  %59 = load ptr, ptr %58, align 8
  %60 = call ptr @g_string_append(ptr noundef %56, ptr noundef %59)
  %61 = load ptr, ptr %7, align 8
  %62 = getelementptr inbounds nuw %struct.enum_val_t, ptr %61, i32 0, i32 0
  %63 = load ptr, ptr %62, align 8
  %64 = load ptr, ptr %7, align 8
  %65 = getelementptr inbounds nuw %struct.enum_val_t, ptr %64, i32 0, i32 1
  %66 = load ptr, ptr %65, align 8
  %67 = call i32 @g_strcmp0(ptr noundef %63, ptr noundef %66)
  %68 = icmp ne i32 %67, 0
  br i1 %68, label %69, label %70

69:                                               ; preds = %50
  store i8 1, ptr %10, align 1
  br label %70

70:                                               ; preds = %69, %50
  %71 = load ptr, ptr %7, align 8
  %72 = getelementptr %struct.enum_val_t, ptr %71, i32 1
  store ptr %72, ptr %7, align 8
  %73 = load ptr, ptr %7, align 8
  %74 = getelementptr inbounds nuw %struct.enum_val_t, ptr %73, i32 0, i32 0
  %75 = load ptr, ptr %74, align 8
  %76 = icmp ne ptr %75, null
  br i1 %76, label %77, label %82

77:                                               ; preds = %70
  %78 = load ptr, ptr %8, align 8
  %79 = call ptr @g_string_append(ptr noundef %78, ptr noundef @.str.60)
  %80 = load ptr, ptr %9, align 8
  %81 = call ptr @g_string_append(ptr noundef %80, ptr noundef @.str.60)
  br label %82

82:                                               ; preds = %77, %70
  br label %45, !llvm.loop !38

83:                                               ; preds = %45
  %84 = load i8, ptr %10, align 1, !range !6, !noundef !7
  %85 = trunc i8 %84 to i1
  br i1 %85, label %86, label %92

86:                                               ; preds = %83
  %87 = load ptr, ptr %8, align 8
  %88 = load ptr, ptr %9, align 8
  %89 = getelementptr inbounds nuw %struct._GString, ptr %88, i32 0, i32 0
  %90 = load ptr, ptr %89, align 8
  %91 = call ptr @g_string_append(ptr noundef %87, ptr noundef %90)
  br label %92

92:                                               ; preds = %86, %83
  %93 = load ptr, ptr %9, align 8
  %94 = call ptr @g_string_free(ptr noundef %93, i32 noundef 1)
  %95 = load ptr, ptr %8, align 8
  %96 = call ptr @g_string_append(ptr noundef %95, ptr noundef @.str.61)
  %97 = load ptr, ptr %8, align 8
  %98 = call ptr @g_string_free(ptr noundef %97, i32 noundef 0)
  store ptr %98, ptr %2, align 8
  store i32 1, ptr %6, align 4
  call void @llvm.lifetime.end.p0(i64 1, ptr %10) #17
  call void @llvm.lifetime.end.p0(i64 8, ptr %9) #17
  call void @llvm.lifetime.end.p0(i64 8, ptr %8) #17
  call void @llvm.lifetime.end.p0(i64 8, ptr %7) #17
  br label %126

99:                                               ; preds = %27
  store ptr @.str.62, ptr %4, align 8
  br label %123

100:                                              ; preds = %27, %27
  store ptr @.str.63, ptr %4, align 8
  br label %123

101:                                              ; preds = %27
  store ptr @.str.64, ptr %4, align 8
  br label %123

102:                                              ; preds = %27
  store ptr @.str.65, ptr %4, align 8
  br label %123

103:                                              ; preds = %27
  store ptr @.str.66, ptr %4, align 8
  br label %123

104:                                              ; preds = %27
  %105 = load ptr, ptr %3, align 8
  %106 = getelementptr inbounds nuw %struct.preference, ptr %105, i32 0, i32 10
  %107 = getelementptr inbounds nuw %struct.pref_custom_cbs, ptr %106, i32 0, i32 4
  %108 = load ptr, ptr %107, align 8
  %109 = icmp ne ptr %108, null
  br i1 %109, label %110, label %116

110:                                              ; preds = %104
  %111 = load ptr, ptr %3, align 8
  %112 = getelementptr inbounds nuw %struct.preference, ptr %111, i32 0, i32 10
  %113 = getelementptr inbounds nuw %struct.pref_custom_cbs, ptr %112, i32 0, i32 4
  %114 = load ptr, ptr %113, align 8
  %115 = call ptr %114()
  store ptr %115, ptr %2, align 8
  store i32 1, ptr %6, align 4
  br label %126

116:                                              ; preds = %104
  store ptr @.str.67, ptr %4, align 8
  br label %123

117:                                              ; preds = %27
  store ptr @.str.68, ptr %4, align 8
  br label %123

118:                                              ; preds = %27
  store ptr @.str.69, ptr %4, align 8
  br label %123

119:                                              ; preds = %27
  store ptr @.str.70, ptr %4, align 8
  br label %123

120:                                              ; preds = %27
  store ptr @.str.71, ptr %4, align 8
  br label %123

121:                                              ; preds = %27
  store ptr @.str.72, ptr %4, align 8
  br label %123

122:                                              ; preds = %27
  br label %123

123:                                              ; preds = %122, %121, %120, %119, %118, %117, %116, %103, %102, %101, %100, %99, %37, %36
  %124 = load ptr, ptr %4, align 8
  %125 = call noalias ptr @g_strdup(ptr noundef %124)
  store ptr %125, ptr %2, align 8
  store i32 1, ptr %6, align 4
  br label %126

126:                                              ; preds = %123, %110, %92, %13
  call void @llvm.lifetime.end.p0(i64 4, ptr %5) #17
  call void @llvm.lifetime.end.p0(i64 8, ptr %4) #17
  %127 = load ptr, ptr %2, align 8
  ret ptr %127
}