; Function Attrs: null_pointer_is_valid sspstrong uwtable
define ptr @prefs_pref_type_description(ptr noundef readonly captures(address_is_null) %0) local_unnamed_addr #1 {
  %.not = icmp eq ptr %0, null
  br i1 %.not, label %2, label %4

2:                                                ; preds = %1
  %3 = tail call noalias ptr (ptr, ptr, ...) @wmem_strdup_printf(ptr noundef null, ptr noundef nonnull @.str.52, ptr noundef nonnull @.str.51)
  br label %57

4:                                                ; preds = %1
  %5 = getelementptr inbounds nuw i8, ptr %0, i64 28
  %6 = load i32, ptr %5, align 4
  %7 = and i32 %6, 1024
  %.not36 = icmp eq i32 %7, 0
  %.str.51..str.53 = select i1 %.not36, ptr @.str.51, ptr @.str.53
  switch i32 %6, label %55 [
    i32 1, label %8
    i32 2, label %14
    i32 4, label %15
    i32 65536, label %15
    i32 8, label %40
    i32 128, label %41
    i32 16384, label %41
    i32 2048, label %42
    i32 16, label %43
    i32 256, label %44
    i32 512, label %45
    i32 8192, label %50
    i32 32, label %51
    i32 64, label %52
    i32 32768, label %53
    i32 131072, label %54
  ]

8:                                                ; preds = %4
  %9 = getelementptr inbounds nuw i8, ptr %0, i64 64
  %10 = load i32, ptr %9, align 8
  switch i32 %10, label %55 [
    i32 10, label %11
    i32 8, label %12
    i32 16, label %13
  ]

11:                                               ; preds = %8
  br label %55

12:                                               ; preds = %8
  br label %55

13:                                               ; preds = %8
  br label %55

14:                                               ; preds = %4
  br label %55

15:                                               ; preds = %4, %4
  %16 = getelementptr inbounds nuw i8, ptr %0, i64 64
  %17 = load ptr, ptr %16, align 8
  %18 = tail call ptr @g_string_new(ptr noundef nonnull @.str.58)
  %19 = tail call ptr @g_string_new(ptr noundef nonnull @.str.59)
  %20 = load ptr, ptr %17, align 8
  %.not3841 = icmp eq ptr %20, null
  br i1 %.not3841, label %.critedge, label %.lr.ph

.lr.ph:                                           ; preds = %15, %31
  %21 = phi ptr [ %.pre, %31 ], [ %20, %15 ]
  %.043 = phi i1 [ %spec.select, %31 ], [ false, %15 ]
  %.03142 = phi ptr [ %29, %31 ], [ %17, %15 ]
  %22 = tail call ptr @g_string_append(ptr noundef %18, ptr noundef nonnull %21)
  %23 = getelementptr inbounds nuw i8, ptr %.03142, i64 8
  %24 = load ptr, ptr %23, align 8
  %25 = tail call ptr @g_string_append(ptr noundef %19, ptr noundef %24)
  %26 = load ptr, ptr %.03142, align 8
  %27 = load ptr, ptr %23, align 8
  %28 = tail call i32 @g_strcmp0(ptr noundef %26, ptr noundef %27)
  %.not39 = icmp ne i32 %28, 0
  %spec.select = select i1 %.not39, i1 true, i1 %.043
  %29 = getelementptr i8, ptr %.03142, i64 24
  %30 = load ptr, ptr %29, align 8
  %.not40 = icmp eq ptr %30, null
  br i1 %.not40, label %._crit_edge, label %31

31:                                               ; preds = %.lr.ph
  %32 = tail call ptr @g_string_append(ptr noundef %18, ptr noundef nonnull @.str.60)
  %33 = tail call ptr @g_string_append(ptr noundef %19, ptr noundef nonnull @.str.60)
  %.pre = load ptr, ptr %29, align 8
  %.not38 = icmp eq ptr %.pre, null
  br i1 %.not38, label %._crit_edge, label %.lr.ph, !llvm.loop !44

._crit_edge:                                      ; preds = %.lr.ph, %31
  br i1 %spec.select, label %34, label %.critedge

34:                                               ; preds = %._crit_edge
  %35 = load ptr, ptr %19, align 8
  %36 = tail call ptr @g_string_append(ptr noundef %18, ptr noundef %35)
  br label %.critedge

.critedge:                                        ; preds = %15, %34, %._crit_edge
  %37 = tail call ptr @g_string_free(ptr noundef %19, i32 noundef 1)
  %38 = tail call ptr @g_string_append(ptr noundef %18, ptr noundef nonnull @.str.61)
  %39 = tail call ptr @g_string_free(ptr noundef %18, i32 noundef 0)
  br label %57

40:                                               ; preds = %4
  br label %55

41:                                               ; preds = %4, %4
  br label %55

42:                                               ; preds = %4
  br label %55

43:                                               ; preds = %4
  br label %55

44:                                               ; preds = %4
  br label %55

45:                                               ; preds = %4
  %46 = getelementptr inbounds nuw i8, ptr %0, i64 112
  %47 = load ptr, ptr %46, align 8
  %.not37 = icmp eq ptr %47, null
  br i1 %.not37, label %55, label %48

48:                                               ; preds = %45
  %49 = tail call ptr %47()
  br label %57

50:                                               ; preds = %4
  br label %55

51:                                               ; preds = %4
  br label %55

52:                                               ; preds = %4
  br label %55

53:                                               ; preds = %4
  br label %55

54:                                               ; preds = %4
  br label %55

55:                                               ; preds = %45, %4, %8, %11, %12, %13, %54, %53, %52, %51, %50, %44, %43, %42, %41, %40, %14
  %.130 = phi ptr [ %.str.51..str.53, %4 ], [ @.str.72, %54 ], [ @.str.71, %53 ], [ @.str.70, %52 ], [ @.str.69, %51 ], [ @.str.68, %50 ], [ @.str.66, %44 ], [ @.str.65, %43 ], [ @.str.64, %42 ], [ @.str.63, %41 ], [ @.str.62, %40 ], [ @.str.57, %14 ], [ %.str.51..str.53, %8 ], [ @.str.56, %13 ], [ @.str.55, %12 ], [ @.str.54, %11 ], [ @.str.67, %45 ]
  %56 = tail call noalias ptr @g_strdup(ptr noundef nonnull %.130)
  br label %57

57:                                               ; preds = %55, %48, %.critedge, %2
  %.028 = phi ptr [ %56, %55 ], [ %49, %48 ], [ %39, %.critedge ], [ %3, %2 ]
  ret ptr %.028
}